target datalayout = "e-m:e-p270:32:32-p271:32:32-p272:64:64-i64:64-i128:128-f80:128-n8:16:32:64-S128"
target triple = "x86_64-pc-linux-gnu"

%struct.XML_Parser_Struct = type { i32, ptr, ptr, ptr, ptr, ptr, ptr, ptr, ptr, ptr, ptr, ptr, ptr, ptr, ptr }
%struct._xmlParserCtxt = type { ptr, ptr, ptr, i32, i32, ptr, ptr, i32, i32, ptr, i32, i32, ptr, ptr, i32, i32, ptr, i32, %struct._xmlParserNodeInfoSeq, i32, i32, i32, i32, i32, i32, %struct._xmlValidCtxt, i32, i32, ptr, ptr, i32, i32, ptr, i64, i64, i32, i32, i32, ptr, ptr, ptr, ptr, i32, i32, ptr, i32, ptr, i32, i32, i32, i32, ptr, i32, i32, ptr, i32, i32, ptr, ptr, i32, i32, ptr, ptr, ptr, i32, i32, i32, ptr, ptr, ptr, ptr, ptr, i32, i32, i32, i32, ptr, i32, ptr, %struct._xmlError, i32, i64, i64, ptr, i32, i32, ptr, i32, i64 }
%struct._xmlParserNodeInfoSeq = type { i64, i64, ptr }
%struct._xmlValidCtxt = type { ptr, ptr, ptr, ptr, i32, i32, ptr, i32, ptr, i32, ptr, i32, i32, ptr, ptr, ptr }
%struct._xmlError = type { i32, i32, ptr, i32, ptr, i32, ptr, ptr, ptr, i32, i32, ptr, ptr }

@.str.3 = private unnamed_addr constant [1 x i8] zeroinitializer, align 1

; Function Attrs: nounwind uwtable
define internal void @external_entity_ref_handler(ptr noundef %0, ptr noundef %1, ptr noundef %2, ptr noundef %3) #0 {
  %5 = alloca ptr, align 8
  %6 = alloca ptr, align 8
  %7 = alloca ptr, align 8
  %8 = alloca ptr, align 8
  %9 = alloca ptr, align 8
  %10 = alloca i32, align 4
  store ptr %0, ptr %5, align 8, !tbaa !53
  store ptr %1, ptr %6, align 8, !tbaa !4
  store ptr %2, ptr %7, align 8, !tbaa !4
  store ptr %3, ptr %8, align 8, !tbaa !4
  call void @llvm.lifetime.start.p0(i64 8, ptr %9) #8
  %11 = load ptr, ptr %5, align 8, !tbaa !53
  store ptr %11, ptr %9, align 8, !tbaa !11
  %12 = load ptr, ptr %9, align 8, !tbaa !11
  %13 = getelementptr inbounds nuw %struct.XML_Parser_Struct, ptr %12, i32 0, i32 12
  %14 = load ptr, ptr %13, align 8, !tbaa !63
  %15 = icmp eq ptr %14, null
  br i1 %15, label %16, label %17

16:                                               ; preds = %4
  store i32 1, ptr %10, align 4
  br label %36

17:                                               ; preds = %4
  %18 = load ptr, ptr %9, align 8, !tbaa !11
  %19 = getelementptr inbounds nuw %struct.XML_Parser_Struct, ptr %18, i32 0, i32 12
  %20 = load ptr, ptr %19, align 8, !tbaa !63
  %21 = load ptr, ptr %9, align 8, !tbaa !11
  %22 = load ptr, ptr %6, align 8, !tbaa !4
  %23 = load ptr, ptr %7, align 8, !tbaa !4
  %24 = load ptr, ptr %8, align 8, !tbaa !4
  %25 = call i32 %20(ptr noundef %21, ptr noundef %22, ptr noundef @.str.3, ptr noundef %23, ptr noundef %24)
  %26 = icmp ne i32 %25, 0
  br i1 %26, label %35, label %27

27:                                               ; preds = %17
  %28 = load ptr, ptr %9, align 8, !tbaa !11
  %29 = getelementptr inbounds nuw %struct.XML_Parser_Struct, ptr %28, i32 0, i32 3
  %30 = load ptr, ptr %29, align 8, !tbaa !18
  call void @xmlStopParser(ptr noundef %30)
  %31 = load ptr, ptr %9, align 8, !tbaa !11
  %32 = getelementptr inbounds nuw %struct.XML_Parser_Struct, ptr %31, i32 0, i32 3
  %33 = load ptr, ptr %32, align 8, !tbaa !18
  %34 = getelementptr inbounds nuw %struct._xmlParserCtxt, ptr %33, i32 0, i32 19
  store i32 21, ptr %34, align 8, !tbaa !70
  br label %35

35:                                               ; preds = %27, %17
  store i32 0, ptr %10, align 4
  br label %36

36:                                               ; preds = %35, %16
  call void @llvm.lifetime.end.p0(i64 8, ptr %9) #8
  %37 = load i32, ptr %10, align 4
  switch i32 %37, label %39 [
    i32 0, label %38
    i32 1, label %38
  ]

38:                                               ; preds = %36, %36
  ret void

39:                                               ; preds = %36
  unreachable
}