; Function Attrs: nounwind uwtable
define internal fastcc void @external_entity_ref_handler(ptr noundef %0, ptr noundef %1, ptr noundef %2, ptr noundef %3) unnamed_addr #0 {
  %5 = getelementptr inbounds nuw i8, ptr %0, i64 96
  %6 = load ptr, ptr %5, align 8, !tbaa !56
  %7 = icmp eq ptr %6, null
  br i1 %7, label %15, label %8

8:                                                ; preds = %4
  %9 = tail call i32 %6(ptr noundef nonnull %0, ptr noundef %1, ptr noundef nonnull @.str.3, ptr noundef %2, ptr noundef %3) #11
  %.not = icmp eq i32 %9, 0
  br i1 %.not, label %10, label %15

10:                                               ; preds = %8
  %11 = getelementptr inbounds nuw i8, ptr %0, i64 24
  %12 = load ptr, ptr %11, align 8, !tbaa !4
  tail call void @xmlStopParser(ptr noundef %12) #11
  %13 = load ptr, ptr %11, align 8, !tbaa !4
  %14 = getelementptr inbounds nuw i8, ptr %13, i64 136
  store i32 21, ptr %14, align 8, !tbaa !60
  br label %15

15:                                               ; preds = %8, %10, %4
  ret void
}